; ModuleID = '4/92.c'
source_filename = "4/92.c"
target datalayout = "e-m:e-p270:32:32-p271:32:32-p272:64:64-i64:64-f80:128-n8:16:32:64-S128"
target triple = "x86_64-pc-linux-gnu"

@.str = private unnamed_addr constant [5 x i8] c"%d%d\00", align 1
@.str.1 = private unnamed_addr constant [3 x i8] c"%d\00", align 1
@.str.2 = private unnamed_addr constant [4 x i8] c"%d\0A\00", align 1

; Function Attrs: noinline nounwind uwtable
define dso_local void @main() #0 {
  %1 = alloca i32, align 4
  %2 = alloca i32, align 4
  %3 = alloca i32, align 4
  %4 = alloca i32, align 4
  %5 = alloca i32, align 4
  %6 = alloca [100 x [100 x i32]], align 16
  store i32 0, i32* %3, align 4
  %7 = call i32 (i8*, ...) @__isoc99_scanf(i8* getelementptr inbounds ([5 x i8], [5 x i8]* @.str, i64 0, i64 0), i32* %1, i32* %2)
  store i32 0, i32* %4, align 4
  br label %8

8:                                                ; preds = %29, %0
  %9 = load i32, i32* %4, align 4
  %10 = load i32, i32* %1, align 4
  %11 = icmp slt i32 %9, %10
  br i1 %11, label %12, label %32

12:                                               ; preds = %8
  store i32 0, i32* %5, align 4
  br label %13

13:                                               ; preds = %25, %12
  %14 = load i32, i32* %5, align 4
  %15 = load i32, i32* %2, align 4
  %16 = icmp slt i32 %14, %15
  br i1 %16, label %17, label %28

17:                                               ; preds = %13
  %18 = load i32, i32* %4, align 4
  %19 = sext i32 %18 to i64
  %20 = getelementptr inbounds [100 x [100 x i32]], [100 x [100 x i32]]* %6, i64 0, i64 %19
  %21 = load i32, i32* %5, align 4
  %22 = sext i32 %21 to i64
  %23 = getelementptr inbounds [100 x i32], [100 x i32]* %20, i64 0, i64 %22
  %24 = call i32 (i8*, ...) @__isoc99_scanf(i8* getelementptr inbounds ([3 x i8], [3 x i8]* @.str.1, i64 0, i64 0), i32* %23)
  br label %25

25:                                               ; preds = %17
  %26 = load i32, i32* %5, align 4
  %27 = add nsw i32 %26, 1
  store i32 %27, i32* %5, align 4
  br label %13

28:                                               ; preds = %13
  br label %29

29:                                               ; preds = %28
  %30 = load i32, i32* %4, align 4
  %31 = add nsw i32 %30, 1
  store i32 %31, i32* %4, align 4
  br label %8

32:                                               ; preds = %8
  store i32 0, i32* %4, align 4
  store i32 0, i32* %5, align 4
  br label %33

33:                                               ; preds = %98, %32
  %34 = load i32, i32* %3, align 4
  %35 = load i32, i32* %1, align 4
  %36 = load i32, i32* %2, align 4
  %37 = add nsw i32 %35, %36
  %38 = sub nsw i32 %37, 1
  %39 = icmp slt i32 %34, %38
  br i1 %39, label %40, label %99

40:                                               ; preds = %33
  %41 = load i32, i32* %4, align 4
  %42 = sext i32 %41 to i64
  %43 = getelementptr inbounds [100 x [100 x i32]], [100 x [100 x i32]]* %6, i64 0, i64 %42
  %44 = load i32, i32* %5, align 4
  %45 = sext i32 %44 to i64
  %46 = getelementptr inbounds [100 x i32], [100 x i32]* %43, i64 0, i64 %45
  %47 = load i32, i32* %46, align 4
  %48 = call i32 (i8*, ...) @printf(i8* getelementptr inbounds ([4 x i8], [4 x i8]* @.str.2, i64 0, i64 0), i32 %47)
  %49 = load i32, i32* %5, align 4
  %50 = icmp eq i32 %49, 0
  br i1 %50, label %59, label %51

51:                                               ; preds = %40
  %52 = load i32, i32* %4, align 4
  %53 = load i32, i32* %1, align 4
  %54 = sub nsw i32 %53, 1
  %55 = icmp eq i32 %52, %54
  br i1 %55, label %56, label %63

56:                                               ; preds = %51
  %57 = load i32, i32* %5, align 4
  %58 = icmp ne i32 %57, 0
  br i1 %58, label %59, label %63

59:                                               ; preds = %56, %40
  %60 = load i32, i32* %3, align 4
  %61 = add nsw i32 %60, 1
  store i32 %61, i32* %3, align 4
  %62 = load i32, i32* %3, align 4
  store i32 %62, i32* %5, align 4
  store i32 0, i32* %4, align 4
  br label %68

63:                                               ; preds = %56, %51
  %64 = load i32, i32* %4, align 4
  %65 = add nsw i32 %64, 1
  store i32 %65, i32* %4, align 4
  %66 = load i32, i32* %5, align 4
  %67 = add nsw i32 %66, -1
  store i32 %67, i32* %5, align 4
  br label %68

68:                                               ; preds = %63, %59
  br label %69

69:                                               ; preds = %74, %68
  %70 = load i32, i32* %5, align 4
  %71 = load i32, i32* %2, align 4
  %72 = sub nsw i32 %71, 1
  %73 = icmp sgt i32 %70, %72
  br i1 %73, label %74, label %79

74:                                               ; preds = %69
  %75 = load i32, i32* %5, align 4
  %76 = add nsw i32 %75, -1
  store i32 %76, i32* %5, align 4
  %77 = load i32, i32* %4, align 4
  %78 = add nsw i32 %77, 1
  store i32 %78, i32* %4, align 4
  br label %69

79:                                               ; preds = %69
  %80 = load i32, i32* %4, align 4
  %81 = load i32, i32* %1, align 4
  %82 = sub nsw i32 %81, 1
  %83 = icmp eq i32 %80, %82
  br i1 %83, label %84, label %98

84:                                               ; preds = %79
  %85 = load i32, i32* %5, align 4
  %86 = load i32, i32* %2, align 4
  %87 = sub nsw i32 %86, 1
  %88 = icmp eq i32 %85, %87
  br i1 %88, label %89, label %98

89:                                               ; preds = %84
  %90 = load i32, i32* %4, align 4
  %91 = sext i32 %90 to i64
  %92 = getelementptr inbounds [100 x [100 x i32]], [100 x [100 x i32]]* %6, i64 0, i64 %91
  %93 = load i32, i32* %5, align 4
  %94 = sext i32 %93 to i64
  %95 = getelementptr inbounds [100 x i32], [100 x i32]* %92, i64 0, i64 %94
  %96 = load i32, i32* %95, align 4
  %97 = call i32 (i8*, ...) @printf(i8* getelementptr inbounds ([4 x i8], [4 x i8]* @.str.2, i64 0, i64 0), i32 %96)
  br label %99

98:                                               ; preds = %84, %79
  br label %33

99:                                               ; preds = %89, %33
  ret void
}

declare dso_local i32 @__isoc99_scanf(i8*, ...) #1

declare dso_local i32 @printf(i8*, ...) #1


!llvm.module.flags = !{!0}
!llvm.ident = !{!1}

!0 = !{i32 1, !"wchar_size", i32 4}
!1 = !{!"clang version 10.0.0-4ubuntu1 "}
