; ModuleID = 'source-C-CXX/3/92.c'
source_filename = "source-C-CXX/3/92.c"
target datalayout = "e-m:e-p270:32:32-p271:32:32-p272:64:64-i64:64-f80:128-n8:16:32:64-S128"
target triple = "x86_64-pc-linux-gnu"

@.str = private unnamed_addr constant [5 x i8] c"%d%d\00", align 1
@.str.1 = private unnamed_addr constant [3 x i8] c"%d\00", align 1
@.str.2 = private unnamed_addr constant [4 x i8] c"%d\0A\00", align 1

; Function Attrs: nofree nounwind sspstrong uwtable
define dso_local void @main() local_unnamed_addr #0 {
  %1 = alloca i32, align 4
  %2 = alloca i32, align 4
  %3 = alloca [100 x [100 x i32]], align 16
  %4 = bitcast i32* %1 to i8*
  call void @llvm.lifetime.start.p0i8(i64 4, i8* nonnull %4) #3
  %5 = bitcast i32* %2 to i8*
  call void @llvm.lifetime.start.p0i8(i64 4, i8* nonnull %5) #3
  %6 = bitcast [100 x [100 x i32]]* %3 to i8*
  call void @llvm.lifetime.start.p0i8(i64 40000, i8* nonnull %6) #3
  %7 = call i32 (i8*, ...) @__isoc99_scanf(i8* getelementptr inbounds ([5 x i8], [5 x i8]* @.str, i64 0, i64 0), i32* nonnull %1, i32* nonnull %2)
  %8 = load i32, i32* %1, align 4, !tbaa !5
  %9 = icmp sgt i32 %8, 0
  %10 = load i32, i32* %2, align 4, !tbaa !5
  %11 = icmp sgt i32 %10, 0
  %12 = select i1 %9, i1 %11, i1 false
  br i1 %12, label %13, label %34

13:                                               ; preds = %0, %28
  %14 = phi i32 [ %29, %28 ], [ %8, %0 ]
  %15 = phi i32 [ %30, %28 ], [ %10, %0 ]
  %16 = phi i64 [ %31, %28 ], [ 0, %0 ]
  %17 = icmp sgt i32 %15, 0
  br i1 %17, label %18, label %28

18:                                               ; preds = %13, %18
  %19 = phi i64 [ %22, %18 ], [ 0, %13 ]
  %20 = getelementptr inbounds [100 x [100 x i32]], [100 x [100 x i32]]* %3, i64 0, i64 %16, i64 %19
  %21 = call i32 (i8*, ...) @__isoc99_scanf(i8* getelementptr inbounds ([3 x i8], [3 x i8]* @.str.1, i64 0, i64 0), i32* nonnull %20)
  %22 = add nuw nsw i64 %19, 1
  %23 = load i32, i32* %2, align 4, !tbaa !5
  %24 = sext i32 %23 to i64
  %25 = icmp slt i64 %22, %24
  br i1 %25, label %18, label %26, !llvm.loop !9

26:                                               ; preds = %18
  %27 = load i32, i32* %1, align 4, !tbaa !5
  br label %28

28:                                               ; preds = %26, %13
  %29 = phi i32 [ %27, %26 ], [ %14, %13 ]
  %30 = phi i32 [ %23, %26 ], [ %15, %13 ]
  %31 = add nuw nsw i64 %16, 1
  %32 = sext i32 %29 to i64
  %33 = icmp slt i64 %31, %32
  br i1 %33, label %13, label %34, !llvm.loop !11

34:                                               ; preds = %28, %0
  %35 = phi i32 [ %10, %0 ], [ %30, %28 ]
  %36 = phi i32 [ %8, %0 ], [ %29, %28 ]
  br label %37

37:                                               ; preds = %34, %75
  %38 = phi i32 [ %66, %75 ], [ %35, %34 ]
  %39 = phi i32 [ %79, %75 ], [ %36, %34 ]
  %40 = phi i32 [ %63, %75 ], [ 0, %34 ]
  %41 = phi i32 [ %77, %75 ], [ 0, %34 ]
  %42 = phi i32 [ %78, %75 ], [ 0, %34 ]
  %43 = add i32 %39, -1
  %44 = add i32 %43, %38
  %45 = icmp slt i32 %40, %44
  br i1 %45, label %46, label %90

46:                                               ; preds = %37
  %47 = sext i32 %41 to i64
  %48 = sext i32 %42 to i64
  %49 = getelementptr inbounds [100 x [100 x i32]], [100 x [100 x i32]]* %3, i64 0, i64 %47, i64 %48
  %50 = load i32, i32* %49, align 4, !tbaa !5
  %51 = call i32 (i8*, ...) @printf(i8* nonnull dereferenceable(1) getelementptr inbounds ([4 x i8], [4 x i8]* @.str.2, i64 0, i64 0), i32 %50)
  %52 = icmp eq i32 %42, 0
  br i1 %52, label %57, label %53

53:                                               ; preds = %46
  %54 = load i32, i32* %1, align 4, !tbaa !5
  %55 = add nsw i32 %54, -1
  %56 = icmp eq i32 %41, %55
  br i1 %56, label %57, label %59

57:                                               ; preds = %53, %46
  %58 = add nsw i32 %40, 1
  br label %62

59:                                               ; preds = %53
  %60 = add nsw i32 %41, 1
  %61 = add nsw i32 %42, -1
  br label %62

62:                                               ; preds = %59, %57
  %63 = phi i32 [ %58, %57 ], [ %40, %59 ]
  %64 = phi i32 [ 0, %57 ], [ %60, %59 ]
  %65 = phi i32 [ %58, %57 ], [ %61, %59 ]
  %66 = load i32, i32* %2, align 4, !tbaa !5
  %67 = icmp slt i32 %65, %66
  br i1 %67, label %68, label %70

68:                                               ; preds = %62
  %69 = add nsw i32 %66, -1
  br label %75

70:                                               ; preds = %62
  %71 = add i32 %65, 1
  %72 = add i32 %71, %64
  %73 = add i32 %66, -1
  %74 = sub i32 %72, %66
  br label %75

75:                                               ; preds = %68, %70
  %76 = phi i32 [ %69, %68 ], [ %73, %70 ]
  %77 = phi i32 [ %64, %68 ], [ %74, %70 ]
  %78 = phi i32 [ %65, %68 ], [ %73, %70 ]
  %79 = load i32, i32* %1, align 4, !tbaa !5
  %80 = add nsw i32 %79, -1
  %81 = icmp eq i32 %77, %80
  %82 = icmp eq i32 %78, %76
  %83 = select i1 %81, i1 %82, i1 false
  br i1 %83, label %84, label %37, !llvm.loop !13

84:                                               ; preds = %75
  %85 = sext i32 %77 to i64
  %86 = sext i32 %76 to i64
  %87 = getelementptr inbounds [100 x [100 x i32]], [100 x [100 x i32]]* %3, i64 0, i64 %85, i64 %86
  %88 = load i32, i32* %87, align 4, !tbaa !5
  %89 = call i32 (i8*, ...) @printf(i8* nonnull dereferenceable(1) getelementptr inbounds ([4 x i8], [4 x i8]* @.str.2, i64 0, i64 0), i32 %88)
  br label %90

90:                                               ; preds = %37, %84
  call void @llvm.lifetime.end.p0i8(i64 40000, i8* nonnull %6) #3
  call void @llvm.lifetime.end.p0i8(i64 4, i8* nonnull %5) #3
  call void @llvm.lifetime.end.p0i8(i64 4, i8* nonnull %4) #3
  ret void
}

; Function Attrs: argmemonly mustprogress nofree nosync nounwind willreturn
declare void @llvm.lifetime.start.p0i8(i64 immarg, i8* nocapture) #1

; Function Attrs: nofree nounwind
declare noundef i32 @__isoc99_scanf(i8* nocapture noundef readonly, ...) local_unnamed_addr #2

; Function Attrs: nofree nounwind
declare noundef i32 @printf(i8* nocapture noundef readonly, ...) local_unnamed_addr #2

; Function Attrs: argmemonly mustprogress nofree nosync nounwind willreturn
declare void @llvm.lifetime.end.p0i8(i64 immarg, i8* nocapture) #1


!llvm.module.flags = !{!0, !1, !2, !3}
!llvm.ident = !{!4}

!0 = !{i32 1, !"wchar_size", i32 4}
!1 = !{i32 7, !"PIC Level", i32 2}
!2 = !{i32 7, !"PIE Level", i32 2}
!3 = !{i32 7, !"uwtable", i32 1}
!4 = !{!"clang version 13.0.0"}
!5 = !{!6, !6, i64 0}
!6 = !{!"int", !7, i64 0}
!7 = !{!"omnipotent char", !8, i64 0}
!8 = !{!"Simple C/C++ TBAA"}
!9 = distinct !{!9, !10}
!10 = !{!"llvm.loop.mustprogress"}
!11 = distinct !{!11, !10, !12}
!12 = !{!"llvm.loop.unswitch.partial.disable"}
!13 = distinct !{!13, !10}
